target datalayout = "e-m:e-p270:32:32-p271:32:32-p272:64:64-i64:64-i128:128-f80:128-n8:16:32:64-S128"
target triple = "x86_64-unknown-linux-gnu"

%"class.std::variant" = type { %"struct.std::__detail::__variant::_Variant_base.base", [7 x i8] }
%"struct.std::__detail::__variant::_Variant_base.base" = type { %"struct.std::__detail::__variant::_Move_assign_base.base" }
%"struct.std::__detail::__variant::_Move_assign_base.base" = type { %"struct.std::__detail::__variant::_Copy_assign_base.base" }
%"struct.std::__detail::__variant::_Copy_assign_base.base" = type { %"struct.std::__detail::__variant::_Move_ctor_base.base" }
%"struct.std::__detail::__variant::_Move_ctor_base.base" = type { %"struct.std::__detail::__variant::_Copy_ctor_base.base" }
%"struct.std::__detail::__variant::_Copy_ctor_base.base" = type { %"struct.std::__detail::__variant::_Variant_storage.base" }
%"struct.std::__detail::__variant::_Variant_storage.base" = type <{ %"union.std::__detail::__variant::_Variadic_union", i8 }>
%"union.std::__detail::__variant::_Variadic_union" = type { %"union.std::__detail::__variant::_Variadic_union.37" }
%"union.std::__detail::__variant::_Variadic_union.37" = type { %"union.std::__detail::__variant::_Variadic_union.39" }
%"union.std::__detail::__variant::_Variadic_union.39" = type { %"struct.std::__detail::__variant::_Uninitialized.40" }
%"struct.std::__detail::__variant::_Uninitialized.40" = type { ptr }
%"class.hermes::ESTree::Node" = type { %"class.llvh::ilist_node", i32, i32, %"class.llvh::SMRange", %"class.llvh::SMLoc" }
%"class.llvh::ilist_node" = type { %"class.llvh::ilist_node_impl" }
%"class.llvh::ilist_node_impl" = type { %"class.llvh::ilist_node_base" }
%"class.llvh::ilist_node_base" = type { ptr, ptr }
%"class.llvh::SMRange" = type { %"class.llvh::SMLoc", %"class.llvh::SMLoc" }
%"class.llvh::SMLoc" = type { ptr }
%"struct.std::__detail::__variant::_Variant_storage" = type <{ %"union.std::__detail::__variant::_Variadic_union", i8, [7 x i8] }>
%"class.hermes::ESTree::FlowNode" = type { %"class.hermes::ESTree::Node" }
%"class.hermes::ESTree::DeclareVariableNode" = type { %"class.hermes::ESTree::FlowNode", ptr, ptr }

@__const._ZSt24__find_uniq_type_in_packIPN6hermes6ESTree4NodeEJNS1_11UnmodifiedTENS1_8RemovedTES3_EEmv.__found = private unnamed_addr constant [3 x i8] c"\00\00\01", align 1
@.str.6 = private unnamed_addr constant [31 x i8] c"std::get: variant is valueless\00", align 1
@.str.7 = private unnamed_addr constant [34 x i8] c"std::get: wrong index for variant\00", align 1
@__const._ZSt24__find_uniq_type_in_packIN6hermes6ESTree8RemovedTEJNS1_11UnmodifiedTES2_PNS1_4NodeEEEmv.__found = private unnamed_addr constant [3 x i8] c"\00\01\00", align 1

; Function Attrs: mustprogress nounwind uwtable
define linkonce_odr hidden noundef nonnull align 8 dereferenceable(8) ptr @_ZNRSt8__detail9__variant14_UninitializedIPN6hermes6ESTree4NodeELb1EE6_M_getEv(ptr noundef nonnull align 8 dereferenceable(8) %this) #0 comdat align 2 {
entry:
  %this.addr = alloca ptr, align 8
  store ptr %this, ptr %this.addr, align 8
  %this1 = load ptr, ptr %this.addr, align 8
  %_M_storage = getelementptr inbounds %"struct.std::__detail::__variant::_Uninitialized.40", ptr %this1, i32 0, i32 0
  ret ptr %_M_storage
}

; Function Attrs: mustprogress nounwind uwtable
define linkonce_odr hidden noundef nonnull align 8 dereferenceable(8) ptr @_ZNSt8__detail9__variant7__get_nILm2ERNS0_15_Variadic_unionIJN6hermes6ESTree11UnmodifiedTENS4_8RemovedTEPNS4_4NodeEEEEEEDcOT0_(ptr noundef nonnull align 8 dereferenceable(8) %__u) #0 comdat {
entry:
  %__u.addr = alloca ptr, align 8
  store ptr %__u, ptr %__u.addr, align 8
  %0 = load ptr, ptr %__u.addr, align 8
  %call = call noundef nonnull align 8 dereferenceable(8) ptr @_ZNRSt8__detail9__variant14_UninitializedIPN6hermes6ESTree4NodeELb1EE6_M_getEv(ptr noundef nonnull align 8 dereferenceable(8) %0) #11
  ret ptr %call
}

; Function Attrs: mustprogress nounwind uwtable
define linkonce_odr void @_ZSt26__throw_bad_variant_accessPKc(ptr noundef %__what) #0 comdat {
entry:
  %__what.addr = alloca ptr, align 8
  store ptr %__what, ptr %__what.addr, align 8
  call void @abort() #13
  unreachable
}

; Function Attrs: mustprogress nounwind uwtable
define linkonce_odr hidden noundef zeroext i1 @_ZNKSt8__detail9__variant16_Variant_storageILb1EJN6hermes6ESTree11UnmodifiedTENS3_8RemovedTEPNS3_4NodeEEE8_M_validEv(ptr noundef nonnull align 8 dereferenceable(9) %this) #0 comdat align 2 {
entry:
  %this.addr = alloca ptr, align 8
  store ptr %this, ptr %this.addr, align 8
  ret i1 true
}

; Function Attrs: mustprogress nounwind uwtable
define linkonce_odr hidden noundef nonnull align 8 dereferenceable(8) ptr @_ZNSt8__detail9__variant5__getILm2ERSt7variantIJN6hermes6ESTree11UnmodifiedTENS4_8RemovedTEPNS4_4NodeEEEEEDcOT0_(ptr noundef nonnull align 8 dereferenceable(9) %__v) #0 comdat {
entry:
  %__v.addr = alloca ptr, align 8
  store ptr %__v, ptr %__v.addr, align 8
  %0 = load ptr, ptr %__v.addr, align 8
  %_M_u = getelementptr inbounds %"struct.std::__detail::__variant::_Variant_storage", ptr %0, i32 0, i32 0
  %call = call noundef nonnull align 8 dereferenceable(8) ptr @_ZNSt8__detail9__variant7__get_nILm2ERNS0_15_Variadic_unionIJN6hermes6ESTree11UnmodifiedTENS4_8RemovedTEPNS4_4NodeEEEEEEDcOT0_(ptr noundef nonnull align 8 dereferenceable(8) %_M_u) #11
  ret ptr %call
}

; Function Attrs: mustprogress nounwind uwtable
define linkonce_odr void @_ZSt26__throw_bad_variant_accessb(i1 noundef zeroext %__valueless) #0 comdat {
entry:
  %__valueless.addr = alloca i8, align 1
  %frombool = zext i1 %__valueless to i8
  store i8 %frombool, ptr %__valueless.addr, align 1
  %0 = load i8, ptr %__valueless.addr, align 1
  %tobool = trunc i8 %0 to i1
  br i1 %tobool, label %if.then, label %if.else

if.then:                                          ; preds = %entry
  call void @_ZSt26__throw_bad_variant_accessPKc(ptr noundef @.str.6)
  br label %if.end

if.else:                                          ; preds = %entry
  call void @_ZSt26__throw_bad_variant_accessPKc(ptr noundef @.str.7)
  br label %if.end

if.end:                                           ; preds = %if.else, %if.then
  ret void
}

; Function Attrs: mustprogress nounwind uwtable
define linkonce_odr hidden noundef zeroext i1 @_ZNKSt7variantIJN6hermes6ESTree11UnmodifiedTENS1_8RemovedTEPNS1_4NodeEEE22valueless_by_exceptionEv(ptr noundef nonnull align 8 dereferenceable(9) %this) #0 comdat align 2 {
entry:
  %this.addr = alloca ptr, align 8
  store ptr %this, ptr %this.addr, align 8
  %this1 = load ptr, ptr %this.addr, align 8
  %call = call noundef zeroext i1 @_ZNKSt8__detail9__variant16_Variant_storageILb1EJN6hermes6ESTree11UnmodifiedTENS3_8RemovedTEPNS3_4NodeEEE8_M_validEv(ptr noundef nonnull align 8 dereferenceable(9) %this1) #11
  %lnot = xor i1 %call, true
  ret i1 %lnot
}

; Function Attrs: mustprogress nounwind uwtable
define linkonce_odr hidden noundef nonnull align 8 dereferenceable(8) ptr @_ZSt3getILm2EJN6hermes6ESTree11UnmodifiedTENS1_8RemovedTEPNS1_4NodeEEERNSt19variant_alternativeIXT_ESt7variantIJDpT0_EEE4typeERSA_(ptr noundef nonnull align 8 dereferenceable(9) %__v) #0 comdat {
entry:
  %__v.addr = alloca ptr, align 8
  store ptr %__v, ptr %__v.addr, align 8
  %0 = load ptr, ptr %__v.addr, align 8
  %call = call noundef i64 @_ZNKSt7variantIJN6hermes6ESTree11UnmodifiedTENS1_8RemovedTEPNS1_4NodeEEE5indexEv(ptr noundef nonnull align 8 dereferenceable(9) %0) #11
  %cmp = icmp ne i64 %call, 2
  br i1 %cmp, label %if.then, label %if.end

if.then:                                          ; preds = %entry
  %1 = load ptr, ptr %__v.addr, align 8
  %call1 = call noundef zeroext i1 @_ZNKSt7variantIJN6hermes6ESTree11UnmodifiedTENS1_8RemovedTEPNS1_4NodeEEE22valueless_by_exceptionEv(ptr noundef nonnull align 8 dereferenceable(9) %1) #11
  call void @_ZSt26__throw_bad_variant_accessb(i1 noundef zeroext %call1)
  br label %if.end

if.end:                                           ; preds = %if.then, %entry
  %2 = load ptr, ptr %__v.addr, align 8
  %call2 = call noundef nonnull align 8 dereferenceable(8) ptr @_ZNSt8__detail9__variant5__getILm2ERSt7variantIJN6hermes6ESTree11UnmodifiedTENS4_8RemovedTEPNS4_4NodeEEEEEDcOT0_(ptr noundef nonnull align 8 dereferenceable(9) %2) #11
  ret ptr %call2
}

; Function Attrs: mustprogress nounwind uwtable
define linkonce_odr hidden noundef i64 @_ZSt24__find_uniq_type_in_packIPN6hermes6ESTree4NodeEJNS1_11UnmodifiedTENS1_8RemovedTES3_EEmv() #0 comdat {
entry:
  %retval = alloca i64, align 8
  %__sz = alloca i64, align 8
  %__found = alloca [3 x i8], align 1
  %__n = alloca i64, align 8
  %__i = alloca i64, align 8
  store i64 3, ptr %__sz, align 8
  call void @llvm.memcpy.p0.p0.i64(ptr align 1 %__found, ptr align 1 @__const._ZSt24__find_uniq_type_in_packIPN6hermes6ESTree4NodeEJNS1_11UnmodifiedTENS1_8RemovedTES3_EEmv.__found, i64 3, i1 false)
  store i64 3, ptr %__n, align 8
  store i64 0, ptr %__i, align 8
  br label %for.cond

for.cond:                                         ; preds = %for.inc, %entry
  %0 = load i64, ptr %__i, align 8
  %cmp = icmp ult i64 %0, 3
  br i1 %cmp, label %for.body, label %for.end

for.body:                                         ; preds = %for.cond
  %1 = load i64, ptr %__i, align 8
  %arrayidx = getelementptr inbounds [3 x i8], ptr %__found, i64 0, i64 %1
  %2 = load i8, ptr %arrayidx, align 1
  %tobool = trunc i8 %2 to i1
  br i1 %tobool, label %if.then, label %if.end3

if.then:                                          ; preds = %for.body
  %3 = load i64, ptr %__n, align 8
  %cmp1 = icmp ult i64 %3, 3
  br i1 %cmp1, label %if.then2, label %if.end

if.then2:                                         ; preds = %if.then
  store i64 3, ptr %retval, align 8
  br label %return

if.end:                                           ; preds = %if.then
  %4 = load i64, ptr %__i, align 8
  store i64 %4, ptr %__n, align 8
  br label %if.end3

if.end3:                                          ; preds = %if.end, %for.body
  br label %for.inc

for.inc:                                          ; preds = %if.end3
  %5 = load i64, ptr %__i, align 8
  %inc = add i64 %5, 1
  store i64 %inc, ptr %__i, align 8
  br label %for.cond, !llvm.loop !11

for.end:                                          ; preds = %for.cond
  %6 = load i64, ptr %__n, align 8
  store i64 %6, ptr %retval, align 8
  br label %return

return:                                           ; preds = %for.end, %if.then2
  %7 = load i64, ptr %retval, align 8
  ret i64 %7
}

; Function Attrs: mustprogress nounwind uwtable
define linkonce_odr hidden noundef i64 @_ZSt24__find_uniq_type_in_packIN6hermes6ESTree8RemovedTEJNS1_11UnmodifiedTES2_PNS1_4NodeEEEmv() #0 comdat {
entry:
  %retval = alloca i64, align 8
  %__sz = alloca i64, align 8
  %__found = alloca [3 x i8], align 1
  %__n = alloca i64, align 8
  %__i = alloca i64, align 8
  store i64 3, ptr %__sz, align 8
  call void @llvm.memcpy.p0.p0.i64(ptr align 1 %__found, ptr align 1 @__const._ZSt24__find_uniq_type_in_packIN6hermes6ESTree8RemovedTEJNS1_11UnmodifiedTES2_PNS1_4NodeEEEmv.__found, i64 3, i1 false)
  store i64 3, ptr %__n, align 8
  store i64 0, ptr %__i, align 8
  br label %for.cond

for.cond:                                         ; preds = %for.inc, %entry
  %0 = load i64, ptr %__i, align 8
  %cmp = icmp ult i64 %0, 3
  br i1 %cmp, label %for.body, label %for.end

for.body:                                         ; preds = %for.cond
  %1 = load i64, ptr %__i, align 8
  %arrayidx = getelementptr inbounds [3 x i8], ptr %__found, i64 0, i64 %1
  %2 = load i8, ptr %arrayidx, align 1
  %tobool = trunc i8 %2 to i1
  br i1 %tobool, label %if.then, label %if.end3

if.then:                                          ; preds = %for.body
  %3 = load i64, ptr %__n, align 8
  %cmp1 = icmp ult i64 %3, 3
  br i1 %cmp1, label %if.then2, label %if.end

if.then2:                                         ; preds = %if.then
  store i64 3, ptr %retval, align 8
  br label %return

if.end:                                           ; preds = %if.then
  %4 = load i64, ptr %__i, align 8
  store i64 %4, ptr %__n, align 8
  br label %if.end3

if.end3:                                          ; preds = %if.end, %for.body
  br label %for.inc

for.inc:                                          ; preds = %if.end3
  %5 = load i64, ptr %__i, align 8
  %inc = add i64 %5, 1
  store i64 %inc, ptr %__i, align 8
  br label %for.cond, !llvm.loop !13

for.end:                                          ; preds = %for.cond
  %6 = load i64, ptr %__n, align 8
  store i64 %6, ptr %retval, align 8
  br label %return

return:                                           ; preds = %for.end, %if.then2
  %7 = load i64, ptr %retval, align 8
  ret i64 %7
}

; Function Attrs: mustprogress nounwind uwtable
define linkonce_odr hidden noundef i64 @_ZNKSt7variantIJN6hermes6ESTree11UnmodifiedTENS1_8RemovedTEPNS1_4NodeEEE5indexEv(ptr noundef nonnull align 8 dereferenceable(9) %this) #0 comdat align 2 {
entry:
  %this.addr = alloca ptr, align 8
  store ptr %this, ptr %this.addr, align 8
  %this1 = load ptr, ptr %this.addr, align 8
  %_M_index = getelementptr inbounds %"struct.std::__detail::__variant::_Variant_storage", ptr %this1, i32 0, i32 1
  %0 = load i8, ptr %_M_index, align 8
  %conv = zext i8 %0 to i64
  ret i64 %conv
}

; Function Attrs: mustprogress nounwind uwtable
define linkonce_odr hidden noundef nonnull align 8 dereferenceable(8) ptr @_ZSt3getIPN6hermes6ESTree4NodeEJNS1_11UnmodifiedTENS1_8RemovedTES3_EERT_RSt7variantIJDpT0_EE(ptr noundef nonnull align 8 dereferenceable(9) %__v) #0 comdat {
entry:
  %__v.addr = alloca ptr, align 8
  %__n = alloca i64, align 8
  store ptr %__v, ptr %__v.addr, align 8
  store i64 2, ptr %__n, align 8
  %0 = load ptr, ptr %__v.addr, align 8
  %call = call noundef nonnull align 8 dereferenceable(8) ptr @_ZSt3getILm2EJN6hermes6ESTree11UnmodifiedTENS1_8RemovedTEPNS1_4NodeEEERNSt19variant_alternativeIXT_ESt7variantIJDpT0_EEE4typeERSA_(ptr noundef nonnull align 8 dereferenceable(9) %0)
  ret ptr %call
}

; Function Attrs: mustprogress nounwind uwtable
define linkonce_odr hidden noundef zeroext i1 @_ZSt17holds_alternativeIPN6hermes6ESTree4NodeEJNS1_11UnmodifiedTENS1_8RemovedTES3_EEbRKSt7variantIJDpT0_EE(ptr noundef nonnull align 8 dereferenceable(9) %__v) #0 comdat {
entry:
  %__v.addr = alloca ptr, align 8
  store ptr %__v, ptr %__v.addr, align 8
  %0 = load ptr, ptr %__v.addr, align 8
  %call = call noundef i64 @_ZNKSt7variantIJN6hermes6ESTree11UnmodifiedTENS1_8RemovedTEPNS1_4NodeEEE5indexEv(ptr noundef nonnull align 8 dereferenceable(9) %0) #11
  %call1 = call noundef i64 @_ZSt24__find_uniq_type_in_packIPN6hermes6ESTree4NodeEJNS1_11UnmodifiedTENS1_8RemovedTES3_EEmv()
  %cmp = icmp eq i64 %call, %call1
  ret i1 %cmp
}

; Function Attrs: mustprogress nounwind uwtable
define linkonce_odr hidden noundef zeroext i1 @_ZSt17holds_alternativeIN6hermes6ESTree8RemovedTEJNS1_11UnmodifiedTES2_PNS1_4NodeEEEbRKSt7variantIJDpT0_EE(ptr noundef nonnull align 8 dereferenceable(9) %__v) #0 comdat {
entry:
  %__v.addr = alloca ptr, align 8
  store ptr %__v, ptr %__v.addr, align 8
  %0 = load ptr, ptr %__v.addr, align 8
  %call = call noundef i64 @_ZNKSt7variantIJN6hermes6ESTree11UnmodifiedTENS1_8RemovedTEPNS1_4NodeEEE5indexEv(ptr noundef nonnull align 8 dereferenceable(9) %0) #11
  %call1 = call noundef i64 @_ZSt24__find_uniq_type_in_packIN6hermes6ESTree8RemovedTEJNS1_11UnmodifiedTES2_PNS1_4NodeEEEmv()
  %cmp = icmp eq i64 %call, %call1
  ret i1 %cmp
}

; Function Attrs: mustprogress nounwind uwtable
define internal void @_ZN6hermes6ESTree24RecursiveVisitorDispatchINS_3sem12_GLOBAL__N_127BlockScopingTransformationsELb0EE9postVisitEPPNS_12UniqueStringENS0_11UnmodifiedTE(ptr noundef %0) #0 align 2 {
entry:
  %.addr = alloca ptr, align 8
  store ptr %0, ptr %.addr, align 8
  ret void
}

; Function Attrs: mustprogress nounwind uwtable
define internal void @_ZN6hermes6ESTree24RecursiveVisitorDispatchINS_3sem12_GLOBAL__N_127BlockScopingTransformationsELb0EE5visitERS4_PNS_12UniqueStringEPNS0_4NodeE(ptr noundef nonnull align 8 dereferenceable(72) %0, ptr noundef %1, ptr noundef %2) #0 align 2 {
entry:
  %.addr = alloca ptr, align 8
  %.addr1 = alloca ptr, align 8
  %.addr2 = alloca ptr, align 8
  store ptr %0, ptr %.addr, align 8
  store ptr %1, ptr %.addr1, align 8
  store ptr %2, ptr %.addr2, align 8
  ret void
}

; Function Attrs: mustprogress nounwind uwtable
define internal void @_ZN6hermes6ESTree24RecursiveVisitorDispatchINS_3sem12_GLOBAL__N_127BlockScopingTransformationsELb0EE9postVisitEPPNS0_4NodeESt7variantIJNS0_11UnmodifiedTENS0_8RemovedTES7_EE(ptr noundef %node, ptr %vr.coerce0, i8 %vr.coerce1) #0 align 2 {
entry:
  %vr = alloca %"class.std::variant", align 8
  %node.addr = alloca ptr, align 8
  %0 = getelementptr inbounds { ptr, i8 }, ptr %vr, i32 0, i32 0
  store ptr %vr.coerce0, ptr %0, align 8
  %1 = getelementptr inbounds { ptr, i8 }, ptr %vr, i32 0, i32 1
  store i8 %vr.coerce1, ptr %1, align 8
  store ptr %node, ptr %node.addr, align 8
  %call = call noundef zeroext i1 @_ZSt17holds_alternativeIN6hermes6ESTree8RemovedTEJNS1_11UnmodifiedTES2_PNS1_4NodeEEEbRKSt7variantIJDpT0_EE(ptr noundef nonnull align 8 dereferenceable(9) %vr) #11
  br i1 %call, label %if.then, label %if.else

if.then:                                          ; preds = %entry
  %2 = load ptr, ptr %node.addr, align 8
  store ptr null, ptr %2, align 8
  br label %if.end5

if.else:                                          ; preds = %entry
  %call1 = call noundef zeroext i1 @_ZSt17holds_alternativeIPN6hermes6ESTree4NodeEJNS1_11UnmodifiedTENS1_8RemovedTES3_EEbRKSt7variantIJDpT0_EE(ptr noundef nonnull align 8 dereferenceable(9) %vr) #11
  br i1 %call1, label %if.then2, label %if.else4

if.then2:                                         ; preds = %if.else
  %call3 = call noundef nonnull align 8 dereferenceable(8) ptr @_ZSt3getIPN6hermes6ESTree4NodeEJNS1_11UnmodifiedTENS1_8RemovedTES3_EERT_RSt7variantIJDpT0_EE(ptr noundef nonnull align 8 dereferenceable(9) %vr)
  %3 = load ptr, ptr %call3, align 8
  %4 = load ptr, ptr %node.addr, align 8
  store ptr %3, ptr %4, align 8
  br label %if.end

if.else4:                                         ; preds = %if.else
  br label %if.end

if.end:                                           ; preds = %if.else4, %if.then2
  br label %if.end5

if.end5:                                          ; preds = %if.end, %if.then
  ret void
}

; Function Attrs: mustprogress nounwind uwtable
define internal void @_ZN6hermes6ESTree24RecursiveVisitorDispatchINS_3sem12_GLOBAL__N_127BlockScopingTransformationsELb0EE13visitChildrenERS4_PNS0_19DeclareVariableNodeE(ptr noundef nonnull align 8 dereferenceable(72) %v, ptr noundef %node) #0 align 2 {
entry:
  %v.addr = alloca ptr, align 8
  %node.addr = alloca ptr, align 8
  %agg.tmp = alloca %"class.std::variant", align 8
  store ptr %v, ptr %v.addr, align 8
  store ptr %node, ptr %node.addr, align 8
  %0 = load ptr, ptr %node.addr, align 8
  %_id = getelementptr inbounds %"class.hermes::ESTree::DeclareVariableNode", ptr %0, i32 0, i32 1
  %1 = load ptr, ptr %v.addr, align 8
  %2 = load ptr, ptr %node.addr, align 8
  %_id1 = getelementptr inbounds %"class.hermes::ESTree::DeclareVariableNode", ptr %2, i32 0, i32 1
  %3 = load ptr, ptr %_id1, align 8
  %4 = load ptr, ptr %node.addr, align 8
  %call = call { ptr, i8 } @_ZN6hermes6ESTree24RecursiveVisitorDispatchINS_3sem12_GLOBAL__N_127BlockScopingTransformationsELb0EE5visitERS4_PNS0_4NodeES8_(ptr noundef nonnull align 8 dereferenceable(72) %1, ptr noundef %3, ptr noundef %4)
  %5 = getelementptr inbounds { ptr, i8 }, ptr %agg.tmp, i32 0, i32 0
  %6 = extractvalue { ptr, i8 } %call, 0
  store ptr %6, ptr %5, align 8
  %7 = getelementptr inbounds { ptr, i8 }, ptr %agg.tmp, i32 0, i32 1
  %8 = extractvalue { ptr, i8 } %call, 1
  store i8 %8, ptr %7, align 8
  %9 = getelementptr inbounds { ptr, i8 }, ptr %agg.tmp, i32 0, i32 0
  %10 = load ptr, ptr %9, align 8
  %11 = getelementptr inbounds { ptr, i8 }, ptr %agg.tmp, i32 0, i32 1
  %12 = load i8, ptr %11, align 8
  call void @_ZN6hermes6ESTree24RecursiveVisitorDispatchINS_3sem12_GLOBAL__N_127BlockScopingTransformationsELb0EE9postVisitEPPNS0_4NodeESt7variantIJNS0_11UnmodifiedTENS0_8RemovedTES7_EE(ptr noundef %_id, ptr %10, i8 %12)
  %13 = load ptr, ptr %node.addr, align 8
  %_kind = getelementptr inbounds %"class.hermes::ESTree::DeclareVariableNode", ptr %13, i32 0, i32 2
  %14 = load ptr, ptr %v.addr, align 8
  %15 = load ptr, ptr %node.addr, align 8
  %_kind3 = getelementptr inbounds %"class.hermes::ESTree::DeclareVariableNode", ptr %15, i32 0, i32 2
  %16 = load ptr, ptr %_kind3, align 8
  %17 = load ptr, ptr %node.addr, align 8
  call void @_ZN6hermes6ESTree24RecursiveVisitorDispatchINS_3sem12_GLOBAL__N_127BlockScopingTransformationsELb0EE5visitERS4_PNS_12UniqueStringEPNS0_4NodeE(ptr noundef nonnull align 8 dereferenceable(72) %14, ptr noundef %16, ptr noundef %17)
  call void @_ZN6hermes6ESTree24RecursiveVisitorDispatchINS_3sem12_GLOBAL__N_127BlockScopingTransformationsELb0EE9postVisitEPPNS_12UniqueStringENS0_11UnmodifiedTE(ptr noundef %_kind)
  ret void
}